target datalayout = "e-m:e-p270:32:32-p271:32:32-p272:64:64-i64:64-i128:128-f80:128-n8:16:32:64-S128"
target triple = "x86_64-pc-linux-gnu"

@.str.18 = private unnamed_addr constant [30 x i8] c"../openssl/test/threadstest.c\00", align 1
@.str.76 = private unnamed_addr constant [2 x i8] c"1\00", align 1
@.str.96 = private unnamed_addr constant [40 x i8] c"run_thread(&thread, once_run_thread_cb)\00", align 1
@.str.97 = private unnamed_addr constant [24 x i8] c"wait_for_thread(thread)\00", align 1
@once_run = internal global i32 0, align 4
@.str.98 = private unnamed_addr constant [15 x i8] c"once_run_count\00", align 1
@once_run_count = internal global i32 0, align 4

; Function Attrs: nounwind uwtable
define internal i32 @wait_for_thread(i64 noundef %0) #0 {
  %2 = alloca i64, align 8
  store i64 %0, ptr %2, align 8, !tbaa !14
  %3 = load i64, ptr %2, align 8, !tbaa !14
  %4 = call i32 @pthread_join(i64 noundef %3, ptr noundef null)
  %5 = icmp eq i32 %4, 0
  %6 = zext i1 %5 to i32
  ret i32 %6
}

; Function Attrs: nounwind uwtable
define internal i32 @run_thread(ptr noundef %0, ptr noundef %1) #0 {
  %3 = alloca ptr, align 8
  %4 = alloca ptr, align 8
  store ptr %0, ptr %3, align 8, !tbaa !36
  store ptr %1, ptr %4, align 8, !tbaa !13
  %5 = load ptr, ptr %3, align 8, !tbaa !36
  %6 = load ptr, ptr %4, align 8, !tbaa !13
  %7 = call i32 @pthread_create(ptr noundef %5, ptr noundef null, ptr noundef @thread_run, ptr noundef %6) #10
  %8 = icmp eq i32 %7, 0
  %9 = zext i1 %8 to i32
  ret i32 %9
}

; Function Attrs: nounwind uwtable
define internal i32 @test_once() #0 {
  %1 = alloca i32, align 4
  %2 = alloca i64, align 8
  %3 = alloca i32, align 4
  call void @llvm.lifetime.start.p0(i64 8, ptr %2) #10
  %4 = call i32 @run_thread(ptr noundef %2, ptr noundef @once_run_thread_cb)
  %5 = icmp ne i32 %4, 0
  %6 = zext i1 %5 to i32
  %7 = call i32 @test_true(ptr noundef @.str.18, i32 noundef 515, ptr noundef @.str.96, i32 noundef %6)
  %8 = icmp ne i32 %7, 0
  br i1 %8, label %9, label %23

9:                                                ; preds = %0
  %10 = load i64, ptr %2, align 8, !tbaa !14
  %11 = call i32 @wait_for_thread(i64 noundef %10)
  %12 = icmp ne i32 %11, 0
  %13 = zext i1 %12 to i32
  %14 = call i32 @test_true(ptr noundef @.str.18, i32 noundef 516, ptr noundef @.str.97, i32 noundef %13)
  %15 = icmp ne i32 %14, 0
  br i1 %15, label %16, label %23

16:                                               ; preds = %9
  %17 = call i32 @CRYPTO_THREAD_run_once(ptr noundef @once_run, ptr noundef @once_do_run)
  %18 = icmp ne i32 %17, 0
  br i1 %18, label %19, label %23

19:                                               ; preds = %16
  %20 = load i32, ptr @once_run_count, align 4, !tbaa !4
  %21 = call i32 @test_int_eq(ptr noundef @.str.18, i32 noundef 518, ptr noundef @.str.98, ptr noundef @.str.76, i32 noundef %20, i32 noundef 1)
  %22 = icmp ne i32 %21, 0
  br i1 %22, label %24, label %23

23:                                               ; preds = %19, %16, %9, %0
  store i32 0, ptr %1, align 4
  store i32 1, ptr %3, align 4
  br label %25

24:                                               ; preds = %19
  store i32 1, ptr %1, align 4
  store i32 1, ptr %3, align 4
  br label %25

25:                                               ; preds = %24, %23
  call void @llvm.lifetime.end.p0(i64 8, ptr %2) #10
  %26 = load i32, ptr %1, align 4
  ret i32 %26
}