; Function Attrs: nounwind uwtable
define internal range(i32 0, 2) i32 @test_once() #1 {
  %1 = alloca i64, align 8
  call void @llvm.lifetime.start.p0(i64 8, ptr nonnull %1) #11
  %2 = call i32 @pthread_create(ptr noundef nonnull %1, ptr noundef null, ptr noundef nonnull @thread_run, ptr noundef nonnull @once_run_thread_cb) #11
  %3 = icmp eq i32 %2, 0
  %4 = zext i1 %3 to i32
  %5 = call i32 @test_true(ptr noundef nonnull @.str.18, i32 noundef 515, ptr noundef nonnull @.str.96, i32 noundef %4) #11
  %.not = icmp eq i32 %5, 0
  br i1 %.not, label %17, label %6

6:                                                ; preds = %0
  %7 = load i64, ptr %1, align 8, !tbaa !12
  %8 = call i32 @pthread_join(i64 noundef %7, ptr noundef null) #11
  %9 = icmp eq i32 %8, 0
  %10 = zext i1 %9 to i32
  %11 = call i32 @test_true(ptr noundef nonnull @.str.18, i32 noundef 516, ptr noundef nonnull @.str.97, i32 noundef %10) #11
  %.not1 = icmp eq i32 %11, 0
  br i1 %.not1, label %17, label %12

12:                                               ; preds = %6
  %13 = call i32 @CRYPTO_THREAD_run_once(ptr noundef nonnull @once_run, ptr noundef nonnull @once_do_run) #11
  %.not2 = icmp eq i32 %13, 0
  br i1 %.not2, label %17, label %14

14:                                               ; preds = %12
  %15 = load i32, ptr @once_run_count, align 4, !tbaa !14
  %16 = call i32 @test_int_eq(ptr noundef nonnull @.str.18, i32 noundef 518, ptr noundef nonnull @.str.98, ptr noundef nonnull @.str.76, i32 noundef %15, i32 noundef 1) #11
  %.not3 = icmp ne i32 %16, 0
  %spec.select = zext i1 %.not3 to i32
  br label %17

17:                                               ; preds = %14, %0, %6, %12
  %.0 = phi i32 [ 0, %12 ], [ 0, %6 ], [ 0, %0 ], [ %spec.select, %14 ]
  call void @llvm.lifetime.end.p0(i64 8, ptr nonnull %1) #11
  ret i32 %.0
}